(lp0
S'poi'
p1
aS'from_messages'
p2
aS'loan_advances'
p3
aS'from_poi_to_this_person'
p4
aS'from_this_person_to_poi'
p5
aS'shared_receipt_with_poi'
p6
aS'to_messages'
p7
aS'n_bonus'
p8
aS'p_bonus'
p9
aS'n_deferral_payments'
p10
aS'p_deferral_payments'
p11
aS'n_deferred_income'
p12
aS'p_deferred_income'
p13
aS'n_director_fees'
p14
aS'p_director_fees'
p15
aS'n_exercised_stock_options'
p16
aS'p_exercised_stock_options'
p17
aS'n_expenses'
p18
aS'p_expenses'
p19
aS'n_long_term_incentive'
p20
aS'p_long_term_incentive'
p21
aS'n_other'
p22
aS'p_other'
p23
aS'n_restricted_stock'
p24
aS'p_restricted_stock'
p25
aS'n_restricted_stock_deferred'
p26
aS'p_restricted_stock_deferred'
p27
aS'n_salary'
p28
aS'p_salary'
p29
aS'n_total_payments'
p30
aS'p_total_payments'
p31
aS'n_total_stock_value'
p32
aS'p_total_stock_value'
p33
a.