(lp0
S'poi'
p1
aS'from_messages'
p2
aS'from_poi_to_this_person'
p3
aS'from_this_person_to_poi'
p4
aS'shared_receipt_with_poi'
p5
aS'to_messages'
p6
aS'n_bonus'
p7
aS'p_bonus'
p8
aS'n_deferral_payments'
p9
aS'p_deferral_payments'
p10
aS'n_deferred_income'
p11
aS'p_deferred_income'
p12
aS'n_director_fees'
p13
aS'p_director_fees'
p14
aS'n_exercised_stock_options'
p15
aS'p_exercised_stock_options'
p16
aS'n_expenses'
p17
aS'p_expenses'
p18
aS'n_long_term_incentive'
p19
aS'p_long_term_incentive'
p20
aS'n_other'
p21
aS'p_other'
p22
aS'n_restricted_stock'
p23
aS'p_restricted_stock'
p24
aS'n_restricted_stock_deferred'
p25
aS'p_restricted_stock_deferred'
p26
aS'n_salary'
p27
aS'p_salary'
p28
aS'n_total_payments'
p29
aS'p_total_payments'
p30
aS'n_total_stock_value'
p31
aS'p_total_stock_value'
p32
a.